Certificate:
    Data:
        Version: 3 (0x2)
        Serial Number: 4098 (0x1002)
    Signature Algorithm: sha256WithRSAEncryption
        Issuer: C=RU, O=TEST CA Inc., OU=Security Dept, CN=TEST Root CA/mail=sec-test@example.com
        Validity
            Not Before: Jun 15 10:49:33 2021 GMT
            Not After : Dec  6 10:49:33 2026 GMT
        Subject: C=RU, O=TEST CA Inc., OU=Security Dept, CN=client-moc
        Subject Public Key Info:
            Public Key Algorithm: rsaEncryption
                Public-Key: (2048 bit)
                Modulus:
                    00:cc:80:61:fe:cf:08:74:3b:b9:2a:2b:12:05:01:
                    6f:41:92:c0:8e:eb:96:81:b6:b0:02:a6:8f:38:4b:
                    9b:b7:97:ab:af:94:aa:9b:0e:11:f0:e7:cb:91:a9:
                    69:c0:60:9d:70:03:ca:bd:df:88:0e:fd:7d:5d:2f:
                    1d:00:96:e2:91:92:28:3f:7a:59:8b:46:20:c6:6c:
                    9d:39:9b:cb:3f:e8:8c:13:41:b0:d7:8e:4a:a0:be:
                    75:6e:cb:fe:db:f2:27:a3:e9:d8:bc:ed:d1:09:fc:
                    19:12:51:9b:10:d5:21:a5:97:44:fe:94:4b:81:7a:
                    e4:88:60:e6:33:3d:95:ad:b2:f5:4d:0c:d2:81:2e:
                    f3:6f:87:0d:b4:7c:f4:75:70:00:af:60:bb:50:72:
                    ab:06:b7:ef:c1:22:cb:95:f1:24:44:14:96:5b:ae:
                    e9:43:5f:75:3a:6d:d0:91:ea:e4:ad:d4:0b:50:3b:
                    c8:56:a6:12:5e:3d:bc:95:f9:5b:4b:c7:b8:88:88:
                    df:67:5e:00:dc:66:17:fb:98:c6:81:87:d9:f5:c7:
                    38:81:ef:de:f8:52:7c:b8:2a:81:1a:1e:03:9c:18:
                    9e:3c:e0:d7:4a:f2:8d:fa:fb:cf:10:2d:f7:39:82:
                    7d:6d:fc:b1:ca:ed:03:e9:18:e8:5a:28:04:c2:a5:
                    4d:e7
                Exponent: 65537 (0x10001)
        X509v3 extensions:
            X509v3 Subject Key Identifier: 
                3D:C5:60:9A:E6:F9:11:90:D8:DE:93:87:44:97:1F:6F:72:1E:EB:79
            X509v3 Authority Key Identifier: 
                keyid:3C:2C:B4:97:12:C6:B8:6E:23:E1:5B:CC:E3:2C:B9:31:60:C7:85:62

            X509v3 Basic Constraints: 
                CA:FALSE
            X509v3 Key Usage: 
                Digital Signature, Key Encipherment
            Netscape Comment: 
                OpenSSL Generated Certificate
            X509v3 Subject Alternative Name: 
                IP Address:127.0.0.1, DNS:client-moc, DNS:client.example.com, DNS:localhost
    Signature Algorithm: sha256WithRSAEncryption
         ac:a9:dd:3b:33:9a:02:08:f2:c9:b2:f7:ea:a5:d5:4f:bd:42:
         4c:44:e8:ba:8e:30:b8:a5:82:a6:39:c3:28:56:da:3c:b0:ba:
         2e:b7:36:10:33:d5:90:5e:a5:b0:30:fc:a7:51:8f:00:9f:67:
         78:c1:4b:5a:3f:1a:82:11:25:10:8e:c8:0f:45:dd:f8:ef:fd:
         c0:53:3b:d2:b5:b0:2d:32:24:40:0b:b2:22:16:78:b4:9f:2e:
         79:8b:17:55:bd:55:a2:4b:a0:22:bf:3f:b9:75:e2:c6:39:26:
         f5:69:dc:76:4d:9c:7c:4c:e5:51:59:ab:51:04:a1:60:81:d1:
         dc:33:6e:19:98:70:0e:0b:de:3b:4c:aa:32:ca:8b:62:f6:73:
         2c:79:d8:ef:51:45:68:4a:b9:90:36:b4:b0:d1:31:15:d4:ac:
         b5:00:12:ad:92:2c:f2:3f:9c:7f:37:77:50:67:2e:8d:fa:ee:
         6d:d6:9d:df:de:3f:1d:46:16:26:9d:58:91:1c:24:8e:af:99:
         a0:3c:f4:f0:e1:c1:bc:07:e2:11:f4:a4:54:6b:8e:61:10:53:
         b7:31:ab:e2:a6:7c:38:ce:bd:91:38:f3:b4:fb:8d:ec:99:df:
         88:36:3f:7e:75:8d:e6:4f:ef:f2:aa:b7:8d:d9:64:4e:31:d5:
         33:d6:14:8f:9a:0f:87:d2:52:2b:d3:43:54:1b:91:90:5a:a1:
         99:51:6e:13:42:2e:32:b9:4b:81:b5:1b:4c:59:e7:1b:ab:3d:
         4b:30:a8:8f:7a:3e:a1:f0:74:b5:31:35:cd:ed:fc:4e:a0:73:
         42:93:ee:be:c0:76:a3:dd:aa:ee:e9:ea:50:15:5c:24:88:0a:
         ab:ad:b5:49:83:b4:07:4a:de:94:b6:6c:55:a9:a0:24:be:b3:
         c1:a8:b4:80:8e:83:79:39:ad:12:b2:34:28:e5:ed:6a:33:81:
         44:20:38:33:28:87:55:20:f0:a9:c9:74:39:e8:40:df:f8:77:
         3d:d1:3c:f3:b7:8a:ee:c2:21:dd:5d:e9:5e:ad:b0:bf:73:20:
         ac:c8:5e:18:ce:72:8a:b4:2e:78:2a:43:d9:56:f9:f6:c7:16:
         99:d5:41:01:18:c4:ea:10:55:d6:9d:b8:2c:a2:a0:40:98:a1:
         5c:fa:c7:c2:8b:e7:56:59:67:25:d6:66:24:2c:6d:b8:20:d0:
         5b:3c:78:0c:e3:20:4c:6a:b5:f2:8b:a0:20:69:14:9c:f7:6c:
         84:5c:07:22:ec:92:e9:12:7a:b2:00:87:d6:5e:62:e4:45:6e:
         41:c0:c2:4b:bd:51:8e:a3:c2:99:8e:9b:30:8d:39:c2:5d:05:
         fb:c9:0c:c6:e8:84:d4:fe
-----BEGIN CERTIFICATE-----
MIIFDDCCAvSgAwIBAgICEAIwDQYJKoZIhvcNAQELBQAweTELMAkGA1UEBhMCUlUx
FTATBgNVBAoTDFRFU1QgQ0EgSW5jLjEWMBQGA1UECxMNU2VjdXJpdHkgRGVwdDEV
MBMGA1UEAxMMVEVTVCBSb290IENBMSQwIgYKCZImiZPyLGQBAxQUc2VjLXRlc3RA
ZXhhbXBsZS5jb20wHhcNMjEwNjE1MTA0OTMzWhcNMjYxMjA2MTA0OTMzWjBRMQsw
CQYDVQQGEwJSVTEVMBMGA1UECgwMVEVTVCBDQSBJbmMuMRYwFAYDVQQLDA1TZWN1
cml0eSBEZXB0MRMwEQYDVQQDDApjbGllbnQtbW9jMIIBIjANBgkqhkiG9w0BAQEF
AAOCAQ8AMIIBCgKCAQEAzIBh/s8IdDu5KisSBQFvQZLAjuuWgbawAqaPOEubt5er
r5Sqmw4R8OfLkalpwGCdcAPKvd+IDv19XS8dAJbikZIoP3pZi0YgxmydOZvLP+iM
E0Gw145KoL51bsv+2/Ino+nYvO3RCfwZElGbENUhpZdE/pRLgXrkiGDmMz2VrbL1
TQzSgS7zb4cNtHz0dXAAr2C7UHKrBrfvwSLLlfEkRBSWW67pQ191Om3QkerkrdQL
UDvIVqYSXj28lflbS8e4iIjfZ14A3GYX+5jGgYfZ9cc4ge/e+FJ8uCqBGh4DnBie
PODXSvKN+vvPEC33OYJ9bfyxyu0D6RjoWigEwqVN5wIDAQABo4HFMIHCMB0GA1Ud
DgQWBBQ9xWCa5vkRkNjek4dElx9vch7reTAfBgNVHSMEGDAWgBQ8LLSXEsa4biPh
W8zjLLkxYMeFYjAJBgNVHRMEAjAAMAsGA1UdDwQEAwIFoDAsBglghkgBhvhCAQ0E
HxYdT3BlblNTTCBHZW5lcmF0ZWQgQ2VydGlmaWNhdGUwOgYDVR0RBDMwMYcEfwAA
AYIKY2xpZW50LW1vY4ISY2xpZW50LmV4YW1wbGUuY29tgglsb2NhbGhvc3QwDQYJ
KoZIhvcNAQELBQADggIBAKyp3TszmgII8smy9+ql1U+9QkxE6LqOMLilgqY5wyhW
2jywui63NhAz1ZBepbAw/KdRjwCfZ3jBS1o/GoIRJRCOyA9F3fjv/cBTO9K1sC0y
JEALsiIWeLSfLnmLF1W9VaJLoCK/P7l14sY5JvVp3HZNnHxM5VFZq1EEoWCB0dwz
bhmYcA4L3jtMqjLKi2L2cyx52O9RRWhKuZA2tLDRMRXUrLUAEq2SLPI/nH83d1Bn
Lo367m3Wnd/ePx1GFiadWJEcJI6vmaA89PDhwbwH4hH0pFRrjmEQU7cxq+KmfDjO
vZE487T7jeyZ34g2P351jeZP7/Kqt43ZZE4x1TPWFI+aD4fSUivTQ1QbkZBaoZlR
bhNCLjK5S4G1G0xZ5xurPUswqI96PqHwdLUxNc3t/E6gc0KT7r7AdqPdqu7p6lAV
XCSICquttUmDtAdK3pS2bFWpoCS+s8GotICOg3k5rRKyNCjl7WozgUQgODMoh1Ug
8KnJdDnoQN/4dz3RPPO3iu7CId1d6V6tsL9zIKzIXhjOcoq0LngqQ9lW+fbHFpnV
QQEYxOoQVdaduCyioECYoVz6x8KL51ZZZyXWZiQsbbgg0Fs8eAzjIExqtfKLoCBp
FJz3bIRcByLskukSerIAh9ZeYuRFbkHAwku9UY6jwpmOmzCNOcJdBfvJDMbohNT+
-----END CERTIFICATE-----
